; Function Attrs: mustprogress uwtable
define void @_ZN6casadi2MXC2Exx(ptr noundef nonnull align 8 dereferenceable(8) %0, i64 noundef %1, i64 noundef %2) unnamed_addr #3 align 2 personality ptr @__gxx_personality_v0 {
  %4 = alloca %"class.casadi::Sparsity", align 8
  tail call void @_ZN6casadi12SharedObjectC2Ev(ptr noundef nonnull align 8 dereferenceable(8) %0)
  invoke void @_ZN6casadi8SparsityC1Exx(ptr noundef nonnull align 8 dereferenceable(8) %4, i64 noundef %1, i64 noundef %2)
          to label %5 unwind label %8

5:                                                ; preds = %3
  %6 = invoke noundef ptr @_ZN6casadi10ConstantMX6createERKNS_8SparsityEx(ptr noundef nonnull align 8 dereferenceable(8) %4, i64 noundef 0)
          to label %_ZN6casadi10ConstantMX6createERKNS_8SparsityEi.exit unwind label %10

_ZN6casadi10ConstantMX6createERKNS_8SparsityEi.exit: ; preds = %5
  invoke void @_ZN6casadi12SharedObject3ownEPNS_20SharedObjectInternalE(ptr noundef nonnull align 8 dereferenceable(8) %0, ptr noundef %6)
          to label %7 unwind label %10

7:                                                ; preds = %_ZN6casadi10ConstantMX6createERKNS_8SparsityEi.exit
  call void @_ZN6casadi12SharedObjectD2Ev(ptr noundef nonnull align 8 dereferenceable(8) %4) #27
  ret void

8:                                                ; preds = %3
  %9 = landingpad { ptr, i32 }
          cleanup
  br label %12

10:                                               ; preds = %5, %_ZN6casadi10ConstantMX6createERKNS_8SparsityEi.exit
  %11 = landingpad { ptr, i32 }
          cleanup
  call void @_ZN6casadi12SharedObjectD2Ev(ptr noundef nonnull align 8 dereferenceable(8) %4) #27
  br label %12

12:                                               ; preds = %10, %8
  %.pn = phi { ptr, i32 } [ %11, %10 ], [ %9, %8 ]
  call void @_ZN6casadi12SharedObjectD2Ev(ptr noundef nonnull align 8 dereferenceable(8) %0) #27
  resume { ptr, i32 } %.pn
}